target datalayout = "e-m:e-p270:32:32-p271:32:32-p272:64:64-i64:64-i128:128-f80:128-n8:16:32:64-S128"
target triple = "x86_64-pc-linux-gnu"

%struct.AVFilterContext = type { ptr, ptr, ptr, ptr, ptr, i32, ptr, ptr, i32, ptr, ptr, i32, i32, ptr, ptr, ptr, ptr, i32, ptr, i32, i32 }
%struct.MaskFunContext = type { ptr, i32, i32, i32, i32, i32, [4 x i32], [4 x i32], [4 x i32], i32, i32, i32, i64, ptr, ptr, ptr, ptr }
%struct.AVFilterLink = type { ptr, ptr, ptr, ptr, i32, i32, i32, i32, %struct.AVRational, i32, i32, i32, %struct.AVChannelLayout, %struct.AVRational, ptr, i32, %struct.AVFilterFormatsConfig, %struct.AVFilterFormatsConfig }
%struct.AVChannelLayout = type { i32, i32, %union.anon.1, ptr }
%union.anon.1 = type { i64 }
%struct.AVRational = type { i32, i32 }
%struct.AVFilterFormatsConfig = type { ptr, ptr, ptr, ptr, ptr }
%struct.AVFrame = type { [8 x ptr], [8 x i32], ptr, i32, i32, i32, i32, i32, %struct.AVRational, i64, i64, %struct.AVRational, i32, ptr, i32, i32, [8 x ptr], ptr, i32, ptr, i32, i32, i32, i32, i32, i32, i32, i64, ptr, i32, ptr, ptr, i64, i64, i64, i64, ptr, %struct.AVChannelLayout, i64 }

; Function Attrs: nounwind uwtable
define internal i32 @filter_frame(ptr noundef %0, ptr noundef %1) #1 {
  %3 = alloca i32, align 4
  %4 = alloca ptr, align 8
  %5 = alloca ptr, align 8
  %6 = alloca ptr, align 8
  %7 = alloca ptr, align 8
  %8 = alloca ptr, align 8
  %9 = alloca ptr, align 8
  %10 = alloca ptr, align 8
  %11 = alloca i32, align 4
  store ptr %0, ptr %4, align 8, !tbaa !31
  store ptr %1, ptr %5, align 8, !tbaa !33
  call void @llvm.lifetime.start.p0(i64 8, ptr %6) #7
  %12 = load ptr, ptr %4, align 8, !tbaa !31
  %13 = getelementptr inbounds nuw %struct.AVFilterLink, ptr %12, i32 0, i32 2
  %14 = load ptr, ptr %13, align 8, !tbaa !34
  store ptr %14, ptr %6, align 8, !tbaa !4
  call void @llvm.lifetime.start.p0(i64 8, ptr %7) #7
  %15 = load ptr, ptr %6, align 8, !tbaa !4
  %16 = getelementptr inbounds nuw %struct.AVFilterContext, ptr %15, i32 0, i32 9
  %17 = load ptr, ptr %16, align 8, !tbaa !9
  store ptr %17, ptr %7, align 8, !tbaa !22
  call void @llvm.lifetime.start.p0(i64 8, ptr %8) #7
  %18 = load ptr, ptr %6, align 8, !tbaa !4
  %19 = getelementptr inbounds nuw %struct.AVFilterContext, ptr %18, i32 0, i32 7
  %20 = load ptr, ptr %19, align 8, !tbaa !42
  %21 = getelementptr inbounds ptr, ptr %20, i64 0
  %22 = load ptr, ptr %21, align 8, !tbaa !31
  store ptr %22, ptr %8, align 8, !tbaa !31
  call void @llvm.lifetime.start.p0(i64 8, ptr %9) #7
  %23 = load ptr, ptr %7, align 8, !tbaa !22
  %24 = getelementptr inbounds nuw %struct.MaskFunContext, ptr %23, i32 0, i32 15
  %25 = load ptr, ptr %24, align 8, !tbaa !43
  %26 = load ptr, ptr %6, align 8, !tbaa !4
  %27 = load ptr, ptr %5, align 8, !tbaa !33
  %28 = call i32 %25(ptr noundef %26, ptr noundef %27)
  %29 = icmp ne i32 %28, 0
  br i1 %29, label %30, label %48

30:                                               ; preds = %2
  call void @llvm.lifetime.start.p0(i64 8, ptr %10) #7
  %31 = load ptr, ptr %7, align 8, !tbaa !22
  %32 = getelementptr inbounds nuw %struct.MaskFunContext, ptr %31, i32 0, i32 14
  %33 = load ptr, ptr %32, align 8, !tbaa !44
  %34 = call ptr @av_frame_clone(ptr noundef %33)
  store ptr %34, ptr %10, align 8, !tbaa !33
  %35 = load ptr, ptr %10, align 8, !tbaa !33
  %36 = icmp ne ptr %35, null
  br i1 %36, label %38, label %37

37:                                               ; preds = %30
  call void @av_frame_free(ptr noundef %5)
  store i32 -12, ptr %3, align 4
  store i32 1, ptr %11, align 4
  br label %47

38:                                               ; preds = %30
  %39 = load ptr, ptr %5, align 8, !tbaa !33
  %40 = getelementptr inbounds nuw %struct.AVFrame, ptr %39, i32 0, i32 9
  %41 = load i64, ptr %40, align 8, !tbaa !45
  %42 = load ptr, ptr %10, align 8, !tbaa !33
  %43 = getelementptr inbounds nuw %struct.AVFrame, ptr %42, i32 0, i32 9
  store i64 %41, ptr %43, align 8, !tbaa !45
  call void @av_frame_free(ptr noundef %5)
  %44 = load ptr, ptr %8, align 8, !tbaa !31
  %45 = load ptr, ptr %10, align 8, !tbaa !33
  %46 = call i32 @ff_filter_frame(ptr noundef %44, ptr noundef %45)
  store i32 %46, ptr %3, align 4
  store i32 1, ptr %11, align 4
  br label %47

47:                                               ; preds = %38, %37
  call void @llvm.lifetime.end.p0(i64 8, ptr %10) #7
  br label %105

48:                                               ; preds = %2
  %49 = load ptr, ptr %5, align 8, !tbaa !33
  %50 = call i32 @av_frame_is_writable(ptr noundef %49)
  %51 = icmp ne i32 %50, 0
  br i1 %51, label %52, label %54

52:                                               ; preds = %48
  %53 = load ptr, ptr %5, align 8, !tbaa !33
  store ptr %53, ptr %9, align 8, !tbaa !33
  br label %70

54:                                               ; preds = %48
  %55 = load ptr, ptr %8, align 8, !tbaa !31
  %56 = load ptr, ptr %8, align 8, !tbaa !31
  %57 = getelementptr inbounds nuw %struct.AVFilterLink, ptr %56, i32 0, i32 6
  %58 = load i32, ptr %57, align 8, !tbaa !50
  %59 = load ptr, ptr %8, align 8, !tbaa !31
  %60 = getelementptr inbounds nuw %struct.AVFilterLink, ptr %59, i32 0, i32 7
  %61 = load i32, ptr %60, align 4, !tbaa !51
  %62 = call ptr @ff_get_video_buffer(ptr noundef %55, i32 noundef %58, i32 noundef %61)
  store ptr %62, ptr %9, align 8, !tbaa !33
  %63 = load ptr, ptr %9, align 8, !tbaa !33
  %64 = icmp ne ptr %63, null
  br i1 %64, label %66, label %65

65:                                               ; preds = %54
  store i32 -12, ptr %3, align 4
  store i32 1, ptr %11, align 4
  br label %105

66:                                               ; preds = %54
  %67 = load ptr, ptr %9, align 8, !tbaa !33
  %68 = load ptr, ptr %5, align 8, !tbaa !33
  %69 = call i32 @av_frame_copy_props(ptr noundef %67, ptr noundef %68)
  br label %70

70:                                               ; preds = %66, %52
  %71 = load ptr, ptr %5, align 8, !tbaa !33
  %72 = load ptr, ptr %7, align 8, !tbaa !22
  %73 = getelementptr inbounds nuw %struct.MaskFunContext, ptr %72, i32 0, i32 13
  store ptr %71, ptr %73, align 8, !tbaa !52
  %74 = load ptr, ptr %6, align 8, !tbaa !4
  %75 = load ptr, ptr %7, align 8, !tbaa !22
  %76 = getelementptr inbounds nuw %struct.MaskFunContext, ptr %75, i32 0, i32 16
  %77 = load ptr, ptr %76, align 8, !tbaa !53
  %78 = load ptr, ptr %9, align 8, !tbaa !33
  %79 = load ptr, ptr %7, align 8, !tbaa !22
  %80 = getelementptr inbounds nuw %struct.MaskFunContext, ptr %79, i32 0, i32 8
  %81 = getelementptr inbounds [4 x i32], ptr %80, i64 0, i64 1
  %82 = load i32, ptr %81, align 4, !tbaa !25
  %83 = load ptr, ptr %6, align 8, !tbaa !4
  %84 = call i32 @ff_filter_get_nb_threads(ptr noundef %83) #8
  %85 = icmp sgt i32 %82, %84
  br i1 %85, label %86, label %89

86:                                               ; preds = %70
  %87 = load ptr, ptr %6, align 8, !tbaa !4
  %88 = call i32 @ff_filter_get_nb_threads(ptr noundef %87) #8
  br label %94

89:                                               ; preds = %70
  %90 = load ptr, ptr %7, align 8, !tbaa !22
  %91 = getelementptr inbounds nuw %struct.MaskFunContext, ptr %90, i32 0, i32 8
  %92 = getelementptr inbounds [4 x i32], ptr %91, i64 0, i64 1
  %93 = load i32, ptr %92, align 4, !tbaa !25
  br label %94

94:                                               ; preds = %89, %86
  %95 = phi i32 [ %88, %86 ], [ %93, %89 ]
  %96 = call i32 @ff_filter_execute(ptr noundef %74, ptr noundef %77, ptr noundef %78, ptr noundef null, i32 noundef %95)
  %97 = load ptr, ptr %9, align 8, !tbaa !33
  %98 = load ptr, ptr %5, align 8, !tbaa !33
  %99 = icmp ne ptr %97, %98
  br i1 %99, label %100, label %101

100:                                              ; preds = %94
  call void @av_frame_free(ptr noundef %5)
  br label %101

101:                                              ; preds = %100, %94
  %102 = load ptr, ptr %8, align 8, !tbaa !31
  %103 = load ptr, ptr %9, align 8, !tbaa !33
  %104 = call i32 @ff_filter_frame(ptr noundef %102, ptr noundef %103)
  store i32 %104, ptr %3, align 4
  store i32 1, ptr %11, align 4
  br label %105

105:                                              ; preds = %101, %65, %47
  call void @llvm.lifetime.end.p0(i64 8, ptr %9) #7
  call void @llvm.lifetime.end.p0(i64 8, ptr %8) #7
  call void @llvm.lifetime.end.p0(i64 8, ptr %7) #7
  call void @llvm.lifetime.end.p0(i64 8, ptr %6) #7
  %106 = load i32, ptr %3, align 4
  ret i32 %106
}