; Function Attrs: nounwind uwtable
define internal i32 @filter_frame(ptr noundef readonly captures(none) %0, ptr noundef %1) #1 {
  %3 = alloca ptr, align 8
  store ptr %1, ptr %3, align 8, !tbaa !42
  %4 = getelementptr inbounds nuw i8, ptr %0, i64 16
  %5 = load ptr, ptr %4, align 8, !tbaa !43
  %6 = getelementptr inbounds nuw i8, ptr %5, i64 72
  %7 = load ptr, ptr %6, align 8, !tbaa !4
  %8 = getelementptr inbounds nuw i8, ptr %5, i64 56
  %9 = load ptr, ptr %8, align 8, !tbaa !52
  %10 = load ptr, ptr %9, align 8, !tbaa !53
  %11 = getelementptr inbounds nuw i8, ptr %7, i64 112
  %12 = load ptr, ptr %11, align 8, !tbaa !55
  %13 = tail call i32 %12(ptr noundef %5, ptr noundef %1) #8
  %.not = icmp eq i32 %13, 0
  br i1 %.not, label %24, label %14

14:                                               ; preds = %2
  %15 = getelementptr inbounds nuw i8, ptr %7, i64 104
  %16 = load ptr, ptr %15, align 8, !tbaa !33
  %17 = tail call ptr @av_frame_clone(ptr noundef %16) #8
  %.not34 = icmp eq ptr %17, null
  br i1 %.not34, label %18, label %19

18:                                               ; preds = %14
  call void @av_frame_free(ptr noundef nonnull %3) #8
  br label %45

19:                                               ; preds = %14
  %20 = getelementptr inbounds nuw i8, ptr %1, i64 136
  %21 = load i64, ptr %20, align 8, !tbaa !56
  %22 = getelementptr inbounds nuw i8, ptr %17, i64 136
  store i64 %21, ptr %22, align 8, !tbaa !56
  call void @av_frame_free(ptr noundef nonnull %3) #8
  %23 = call i32 @ff_filter_frame(ptr noundef %10, ptr noundef nonnull %17) #8
  br label %45

24:                                               ; preds = %2
  %25 = tail call i32 @av_frame_is_writable(ptr noundef %1) #8
  %.not31 = icmp eq i32 %25, 0
  br i1 %.not31, label %26, label %34

26:                                               ; preds = %24
  %27 = getelementptr inbounds nuw i8, ptr %10, i64 40
  %28 = load i32, ptr %27, align 8, !tbaa !61
  %29 = getelementptr inbounds nuw i8, ptr %10, i64 44
  %30 = load i32, ptr %29, align 4, !tbaa !62
  %31 = tail call ptr @ff_get_video_buffer(ptr noundef %10, i32 noundef %28, i32 noundef %30) #8
  %.not32 = icmp eq ptr %31, null
  br i1 %.not32, label %45, label %32

32:                                               ; preds = %26
  %33 = tail call i32 @av_frame_copy_props(ptr noundef nonnull %31, ptr noundef %1) #8
  br label %34

34:                                               ; preds = %24, %32
  %.026 = phi ptr [ %31, %32 ], [ %1, %24 ]
  %35 = getelementptr inbounds nuw i8, ptr %7, i64 96
  store ptr %1, ptr %35, align 8, !tbaa !63
  %36 = getelementptr inbounds nuw i8, ptr %7, i64 120
  %37 = load ptr, ptr %36, align 8, !tbaa !64
  %38 = getelementptr inbounds nuw i8, ptr %7, i64 64
  %39 = load i32, ptr %38, align 4, !tbaa !28
  %40 = tail call i32 @ff_filter_get_nb_threads(ptr noundef nonnull %5) #9
  %. = tail call i32 @llvm.smin.i32(i32 %39, i32 %40)
  %41 = tail call i32 @ff_filter_execute(ptr noundef nonnull %5, ptr noundef %37, ptr noundef %.026, ptr noundef null, i32 noundef %.) #8
  %.not33 = icmp eq ptr %.026, %1
  br i1 %.not33, label %43, label %42

42:                                               ; preds = %34
  call void @av_frame_free(ptr noundef nonnull %3) #8
  br label %43

43:                                               ; preds = %42, %34
  %44 = call i32 @ff_filter_frame(ptr noundef %10, ptr noundef %.026) #8
  br label %45

45:                                               ; preds = %26, %18, %19, %43
  %.1 = phi i32 [ %44, %43 ], [ %23, %19 ], [ -12, %18 ], [ -12, %26 ]
  ret i32 %.1
}